; Function Attrs: mustprogress uwtable
define hidden void @_ZN6google8protobuf15UnknownFieldSet23MergeToInternalMetadataERKS1_PNS0_8internal16InternalMetadataE(ptr noundef nonnull readonly align 8 captures(none) dereferenceable(24) %0, ptr noundef %1) local_unnamed_addr #3 align 2 {
  %3 = load i64, ptr %1, align 8, !tbaa !33
  %4 = and i64 %3, 1
  %.not = icmp eq i64 %4, 0
  br i1 %.not, label %9, label %5, !prof !35

5:                                                ; preds = %2
  %6 = and i64 %3, -4
  %7 = inttoptr i64 %6 to ptr
  %8 = getelementptr inbounds nuw i8, ptr %7, i64 8
  br label %_ZN6google8protobuf8internal16InternalMetadata22mutable_unknown_fieldsINS0_15UnknownFieldSetEEEPT_v.exit

9:                                                ; preds = %2
  %10 = tail call noundef ptr @_ZN6google8protobuf8internal16InternalMetadata27mutable_unknown_fields_slowINS0_15UnknownFieldSetEEEPT_v(ptr noundef nonnull align 8 dereferenceable(8) %1)
  br label %_ZN6google8protobuf8internal16InternalMetadata22mutable_unknown_fieldsINS0_15UnknownFieldSetEEEPT_v.exit

_ZN6google8protobuf8internal16InternalMetadata22mutable_unknown_fieldsINS0_15UnknownFieldSetEEEPT_v.exit: ; preds = %5, %9
  %.0.i = phi ptr [ %8, %5 ], [ %10, %9 ]
  tail call void @_ZN6google8protobuf15UnknownFieldSet9MergeFromERKS1_(ptr noundef nonnull align 8 dereferenceable(24) %.0.i, ptr noundef nonnull align 8 dereferenceable(24) %0)
  ret void
}